; Function Attrs: mustprogress nounwind uwtable
define internal void @"_ZN4llvm12function_refIFvvEE11callback_fnIZN5clang9ASTReader14ReadDeclRecordENS4_12GlobalDeclIDEE3$_2EEvl"(i64 noundef %0) #1 align 2 {
  %2 = inttoptr i64 %0 to ptr
  %.val = load ptr, ptr %2, align 8
  %3 = getelementptr i8, ptr %2, i64 8
  %.val1 = load ptr, ptr %3, align 8
  %.val1.val = load ptr, ptr %.val1, align 8
  tail call void @_ZN5clang13ASTDeclReader5VisitEPNS_4DeclE(ptr noundef nonnull align 8 dereferenceable(89) %.val, ptr noundef %.val1.val)
  ret void
}